target datalayout = "e-m:e-p270:32:32-p271:32:32-p272:64:64-i64:64-i128:128-f80:128-n8:16:32:64-S128"
target triple = "x86_64-pc-linux-gnu"

%struct._zend_op = type { ptr, %union._znode_op, %union._znode_op, %union._znode_op, i32, i32, i8, i8, i8, i8 }
%union._znode_op = type { i32 }

; Function Attrs: nounwind uwtable
define zeroext i1 @zend_is_smart_branch(ptr noundef %0) #0 {
  %2 = alloca i1, align 1
  %3 = alloca ptr, align 8
  store ptr %0, ptr %3, align 8
  %4 = load ptr, ptr %3, align 8
  %5 = getelementptr inbounds %struct._zend_op, ptr %4, i32 0, i32 6
  %6 = load i8, ptr %5, align 4
  %7 = zext i8 %6 to i32
  switch i32 %7, label %9 [
    i32 16, label %8
    i32 17, label %8
    i32 18, label %8
    i32 19, label %8
    i32 20, label %8
    i32 21, label %8
    i32 48, label %8
    i32 196, label %8
    i32 154, label %8
    i32 114, label %8
    i32 115, label %8
    i32 148, label %8
    i32 180, label %8
    i32 138, label %8
    i32 123, label %8
    i32 122, label %8
    i32 189, label %8
    i32 194, label %8
  ]

8:                                                ; preds = %1, %1, %1, %1, %1, %1, %1, %1, %1, %1, %1, %1, %1, %1, %1, %1, %1, %1
  store i1 true, ptr %2, align 1
  br label %10

9:                                                ; preds = %1
  store i1 false, ptr %2, align 1
  br label %10

10:                                               ; preds = %9, %8
  %11 = load i1, ptr %2, align 1
  ret i1 %11
}