; Function Attrs: mustprogress nofree norecurse nosync nounwind willreturn memory(argmem: read) uwtable
define noundef zeroext i1 @zend_is_smart_branch(ptr nocapture noundef readonly %0) local_unnamed_addr #13 {
  %2 = getelementptr inbounds i8, ptr %0, i64 28
  %3 = load i8, ptr %2, align 4
  switch i8 %3, label %4 [
    i8 16, label %5
    i8 17, label %5
    i8 18, label %5
    i8 19, label %5
    i8 20, label %5
    i8 21, label %5
    i8 48, label %5
    i8 -60, label %5
    i8 -102, label %5
    i8 114, label %5
    i8 115, label %5
    i8 -108, label %5
    i8 -76, label %5
    i8 -118, label %5
    i8 123, label %5
    i8 122, label %5
    i8 -67, label %5
    i8 -62, label %5
  ]

4:                                                ; preds = %1
  br label %5

5:                                                ; preds = %1, %1, %1, %1, %1, %1, %1, %1, %1, %1, %1, %1, %1, %1, %1, %1, %1, %1, %4
  %.0 = phi i1 [ false, %4 ], [ true, %1 ], [ true, %1 ], [ true, %1 ], [ true, %1 ], [ true, %1 ], [ true, %1 ], [ true, %1 ], [ true, %1 ], [ true, %1 ], [ true, %1 ], [ true, %1 ], [ true, %1 ], [ true, %1 ], [ true, %1 ], [ true, %1 ], [ true, %1 ], [ true, %1 ], [ true, %1 ]
  ret i1 %.0
}